target datalayout = "e-m:e-p270:32:32-p271:32:32-p272:64:64-i64:64-i128:128-f80:128-n8:16:32:64-S128"
target triple = "x86_64-pc-linux-gnu"

%"class.draco::FloatPointsTreeDecoder" = type { %"struct.draco::QuantizationInfo", i8, i32, i32, i32 }
%"struct.draco::QuantizationInfo" = type { i32, float }

; Function Attrs: mustprogress nounwind uwtable
define void @_ZN5draco22FloatPointsTreeDecoderC2Ev(ptr noundef nonnull align 4 dereferenceable(24) %0) unnamed_addr #4 align 2 {
  %2 = alloca ptr, align 8
  store ptr %0, ptr %2, align 8, !tbaa !3
  %3 = load ptr, ptr %2, align 8
  %4 = getelementptr inbounds nuw %"class.draco::FloatPointsTreeDecoder", ptr %3, i32 0, i32 2
  store i32 0, ptr %4, align 4, !tbaa !8
  %5 = getelementptr inbounds nuw %"class.draco::FloatPointsTreeDecoder", ptr %3, i32 0, i32 3
  store i32 0, ptr %5, align 4, !tbaa !13
  %6 = getelementptr inbounds nuw %"class.draco::FloatPointsTreeDecoder", ptr %3, i32 0, i32 4
  store i32 0, ptr %6, align 4, !tbaa !14
  %7 = getelementptr inbounds nuw %"class.draco::FloatPointsTreeDecoder", ptr %3, i32 0, i32 0
  %8 = getelementptr inbounds nuw %"struct.draco::QuantizationInfo", ptr %7, i32 0, i32 0
  store i32 0, ptr %8, align 4, !tbaa !15
  %9 = getelementptr inbounds nuw %"class.draco::FloatPointsTreeDecoder", ptr %3, i32 0, i32 0
  %10 = getelementptr inbounds nuw %"struct.draco::QuantizationInfo", ptr %9, i32 0, i32 1
  store float 0.000000e+00, ptr %10, align 4, !tbaa !16
  ret void
}