; Function Attrs: mustprogress nofree norecurse nosync nounwind willreturn memory(argmem: write) uwtable
define void @_ZN5draco22FloatPointsTreeDecoderC2Ev(ptr noundef nonnull writeonly align 4 captures(none) dereferenceable(24) initializes((0, 8), (12, 24)) %0) unnamed_addr #3 align 2 {
  %2 = getelementptr inbounds nuw i8, ptr %0, i64 12
  store i32 0, ptr %2, align 4, !tbaa !3
  %3 = getelementptr inbounds nuw i8, ptr %0, i64 16
  store i32 0, ptr %3, align 4, !tbaa !10
  %4 = getelementptr inbounds nuw i8, ptr %0, i64 20
  store i32 0, ptr %4, align 4, !tbaa !11
  store i32 0, ptr %0, align 4, !tbaa !12
  %5 = getelementptr inbounds nuw i8, ptr %0, i64 4
  store float 0.000000e+00, ptr %5, align 4, !tbaa !13
  ret void
}